; Function Attrs: mustprogress uwtable
define noundef i32 @_ZN9grpc_core33CompressionAlgorithmBasedMetadata12ParseMementoENS_5SliceEbN4absl12lts_2023080211FunctionRefIFvSt17basic_string_viewIcSt11char_traitsIcEERKS1_EEE(ptr noundef %value, i1 noundef zeroext %0, ptr %on_error.coerce0, ptr nocapture readonly %on_error.coerce1) local_unnamed_addr #3 align 2 personality ptr @__gxx_personality_v0 {
entry:
  %1 = load ptr, ptr %value, align 8
  %tobool.not.i.i = icmp eq ptr %1, null
  %bytes.i.i = getelementptr inbounds i8, ptr %value, i64 16
  %2 = load ptr, ptr %bytes.i.i, align 8
  %bytes5.i.i = getelementptr inbounds i8, ptr %value, i64 9
  %cond.i.i = select i1 %tobool.not.i.i, ptr %bytes5.i.i, ptr %2
  %data.i.i = getelementptr inbounds i8, ptr %value, i64 8
  %3 = load i64, ptr %data.i.i, align 8
  %conv.i.i = and i64 %3, 255
  %cond.i2.i = select i1 %tobool.not.i.i, i64 %conv.i.i, i64 %3
  %call1 = tail call i64 @_ZN9grpc_core25ParseCompressionAlgorithmESt17basic_string_viewIcSt11char_traitsIcEE(i64 %cond.i2.i, ptr %cond.i.i)
  %algorithm.sroa.0.0.extract.trunc = trunc i64 %call1 to i32
  %4 = and i64 %call1, 4294967296
  %tobool.i.i.not = icmp eq i64 %4, 0
  br i1 %tobool.i.i.not, label %if.then, label %return

if.then:                                          ; preds = %entry
  tail call void %on_error.coerce1(ptr %on_error.coerce0, i64 13, ptr nonnull @.str.6, ptr noundef nonnull align 8 dereferenceable(32) %value)
  br label %return

return:                                           ; preds = %entry, %if.then
  %retval.0 = phi i32 [ 0, %if.then ], [ %algorithm.sroa.0.0.extract.trunc, %entry ]
  ret i32 %retval.0
}